(dp1
S'apc'
p2
(dp3
S'length'
p4
I512
sS'unique'
p5
I00
sS'sortable'
p6
I4
sS'sql'
p7
S'TEXT'
p8
sS'notnull'
p9
I00
sS'type'
p10
S'list:reference materia'
p11
ssS'materia'
p12
(dp13
g4
I512
sg5
I01
sg6
I2
sg7
S'INTEGER REFERENCES materia (id) ON DELETE CASCADE'
p14
sg9
I00
sg10
S'reference materia'
p15
ssS'id'
p16
(dp17
g4
I512
sg5
I00
sg6
I1
sg7
S'INTEGER PRIMARY KEY AUTOINCREMENT'
p18
sg9
I00
sg10
S'id'
p19
ssS'rpc'
p20
(dp21
g4
I512
sg5
I00
sg6
I3
sg7
g8
sg9
I00
sg10
g11
ss.