(dp1
S'output'
p2
S"<type 'exceptions.ValueError'> invalid literal for int() with base 10: 'asda6542'"
p3
sS'layer'
p4
S'/home/martin/apps/web2py/applications/universitary_advisor/controllers/horario.py'
p5
sS'code'
p6
S'# -*- coding: utf-8 -*-\n# intente algo como\ndef index():\n    grid = SQLFORM.smartgrid(db.horario_clases)\n    return dict(message="hello from horario.py", grid = grid)\n\nresponse._vars=response._caller(index)\n'
p7
sS'snapshot'
p8
(dp9
S'exception'
p10
(dp11
S'__hash__'
p12
S"<method-wrapper '__hash__' of exceptions.ValueError object>"
p13
sS'__setattr__'
p14
S"<method-wrapper '__setattr__' of exceptions.ValueError object>"
p15
sS'__reduce_ex__'
p16
S'<built-in method __reduce_ex__ of exceptions.ValueError object>'
p17
sS'__getslice__'
p18
S"<method-wrapper '__getslice__' of exceptions.ValueError object>"
p19
sS'__getitem__'
p20
S"<method-wrapper '__getitem__' of exceptions.ValueError object>"
p21
sS'__setstate__'
p22
S'<built-in method __setstate__ of exceptions.ValueError object>'
p23
sS'args'
p24
S'("invalid literal for int() with base 10: \'asda6542\'",)'
p25
sS'__reduce__'
p26
S'<built-in method __reduce__ of exceptions.ValueError object>'
p27
sS'__str__'
p28
S"<method-wrapper '__str__' of exceptions.ValueError object>"
p29
sS'__format__'
p30
S'<built-in method __format__ of exceptions.ValueError object>'
p31
sS'__getattribute__'
p32
S"<method-wrapper '__getattribute__' of exceptions.ValueError object>"
p33
sS'__class__'
p34
S"<type 'exceptions.ValueError'>"
p35
sS'__unicode__'
p36
S'<built-in method __unicode__ of exceptions.ValueError object>'
p37
sS'__delattr__'
p38
S"<method-wrapper '__delattr__' of exceptions.ValueError object>"
p39
sS'__subclasshook__'
p40
S'<built-in method __subclasshook__ of type object>'
p41
sS'__repr__'
p42
S"<method-wrapper '__repr__' of exceptions.ValueError object>"
p43
sS'__dict__'
p44
S'{}'
p45
sS'__sizeof__'
p46
S'<built-in method __sizeof__ of exceptions.ValueError object>'
p47
sS'__doc__'
p48
S"'Inappropriate argument value (of correct type).'"
p49
sS'__init__'
p50
S"<method-wrapper '__init__' of exceptions.ValueError object>"
p51
sS'__new__'
p52
S'<built-in method __new__ of type object>'
p53
ssS'evalue'
p54
S"invalid literal for int() with base 10: 'asda6542'"
p55
sS'request'
p56
cgluon.html
XML_unpickle
p57
(S's\x17`\x00\x00<div><table><tr><td style="font-weight:bold;vertical-align:top;">ajax</td><td style="vertical-align:top;">:</td><td><div>False</div></td></tr><tr><td style="font-weight:bold;vertical-align:top;">application</td><td style="vertical-align:top;">:</td><td><div>universitary_advisor</div></td></tr><tr><td style="font-weight:bold;vertical-align:top;">args</td><td style="vertical-align:top;">:</td><td><div><table><tr><td><div>horario_clases</div></td></tr></table></div></td></tr><tr><td style="font-weight:bold;vertical-align:top;">cid</td><td style="vertical-align:top;">:</td><td><div>None</div></td></tr><tr><td style="font-weight:bold;vertical-align:top;">client</td><td style="vertical-align:top;">:</td><td><div>127.0.0.1</div></td></tr><tr><td style="font-weight:bold;vertical-align:top;">controller</td><td style="vertical-align:top;">:</td><td><div>horario</div></td></tr><tr><td style="font-weight:bold;vertical-align:top;">cookies</td><td style="vertical-align:top;">:</td><td><div><table><tr><td style="font-weight:bold;vertical-align:top;">session_id_admin</td><td style="vertical-align:top;">:</td><td><div>127.0.0.1-0f03cfe0-8f07-4ad6-92c7-5d5e3ae74251<table><tr><td style="font-weight:bold;vertical-align:top;">comment</td><td style="vertical-align:top;">:</td><td><div></div></td></tr><tr><td style="font-weight:bold;vertical-align:top;">domain</td><td style="vertical-align:top;">:</td><td><div></div></td></tr><tr><td style="font-weight:bold;vertical-align:top;">expires</td><td style="vertical-align:top;">:</td><td><div></div></td></tr><tr><td style="font-weight:bold;vertical-align:top;">httponly</td><td style="vertical-align:top;">:</td><td><div></div></td></tr><tr><td style="font-weight:bold;vertical-align:top;">max-age</td><td style="vertical-align:top;">:</td><td><div></div></td></tr><tr><td style="font-weight:bold;vertical-align:top;">path</td><td style="vertical-align:top;">:</td><td><div></div></td></tr><tr><td style="font-weight:bold;vertical-align:top;">secure</td><td style="vertical-align:top;">:</td><td><div></div></td></tr><tr><td style="font-weight:bold;vertical-align:top;">version</td><td style="vertical-align:top;">:</td><td><div></div></td></tr></table></div></td></tr><tr><td style="font-weight:bold;vertical-align:top;">session_id_correlativas</td><td style="vertical-align:top;">:</td><td><div>127.0.0.1-50a31805-f94b-4f98-a328-4d1a566a6e73<table><tr><td style="font-weight:bold;vertical-align:top;">comment</td><td style="vertical-align:top;">:</td><td><div></div></td></tr><tr><td style="font-weight:bold;vertical-align:top;">domain</td><td style="vertical-align:top;">:</td><td><div></div></td></tr><tr><td style="font-weight:bold;vertical-align:top;">expires</td><td style="vertical-align:top;">:</td><td><div></div></td></tr><tr><td style="font-weight:bold;vertical-align:top;">httponly</td><td style="vertical-align:top;">:</td><td><div></div></td></tr><tr><td style="font-weight:bold;vertical-align:top;">max-age</td><td style="vertical-align:top;">:</td><td><div></div></td></tr><tr><td style="font-weight:bold;vertical-align:top;">path</td><td style="vertical-align:top;">:</td><td><div></div></td></tr><tr><td style="font-weight:bold;vertical-align:top;">secure</td><td style="vertical-align:top;">:</td><td><div></div></td></tr><tr><td style="font-weight:bold;vertical-align:top;">version</td><td style="vertical-align:top;">:</td><td><div></div></td></tr></table></div></td></tr><tr><td style="font-weight:bold;vertical-align:top;">session_id_universitary_advisor</td><td style="vertical-align:top;">:</td><td><div>127.0.0.1-f5190dc2-e083-43fb-90cf-4f58a181b5fe<table><tr><td style="font-weight:bold;vertical-align:top;">comment</td><td style="vertical-align:top;">:</td><td><div></div></td></tr><tr><td style="font-weight:bold;vertical-align:top;">domain</td><td style="vertical-align:top;">:</td><td><div></div></td></tr><tr><td style="font-weight:bold;vertical-align:top;">expires</td><td style="vertical-align:top;">:</td><td><div></div></td></tr><tr><td style="font-weight:bold;vertical-align:top;">httponly</td><td style="vertical-align:top;">:</td><td><div></div></td></tr><tr><td style="font-weight:bold;vertical-align:top;">max-age</td><td style="vertical-align:top;">:</td><td><div></div></td></tr><tr><td style="font-weight:bold;vertical-align:top;">path</td><td style="vertical-align:top;">:</td><td><div></div></td></tr><tr><td style="font-weight:bold;vertical-align:top;">secure</td><td style="vertical-align:top;">:</td><td><div></div></td></tr><tr><td style="font-weight:bold;vertical-align:top;">version</td><td style="vertical-align:top;">:</td><td><div></div></td></tr></table></div></td></tr><tr><td style="font-weight:bold;vertical-align:top;">session_id_welcome</td><td style="vertical-align:top;">:</td><td><div>127.0.0.1-9535ed6d-e929-434b-95e1-0d9659cfa5a4<table><tr><td style="font-weight:bold;vertical-align:top;">comment</td><td style="vertical-align:top;">:</td><td><div></div></td></tr><tr><td style="font-weight:bold;vertical-align:top;">domain</td><td style="vertical-align:top;">:</td><td><div></div></td></tr><tr><td style="font-weight:bold;vertical-align:top;">expires</td><td style="vertical-align:top;">:</td><td><div></div></td></tr><tr><td style="font-weight:bold;vertical-align:top;">httponly</td><td style="vertical-align:top;">:</td><td><div></div></td></tr><tr><td style="font-weight:bold;vertical-align:top;">max-age</td><td style="vertical-align:top;">:</td><td><div></div></td></tr><tr><td style="font-weight:bold;vertical-align:top;">path</td><td style="vertical-align:top;">:</td><td><div></div></td></tr><tr><td style="font-weight:bold;vertical-align:top;">secure</td><td style="vertical-align:top;">:</td><td><div></div></td></tr><tr><td style="font-weight:bold;vertical-align:top;">version</td><td style="vertical-align:top;">:</td><td><div></div></td></tr></table></div></td></tr></table></div></td></tr><tr><td style="font-weight:bold;vertical-align:top;">env</td><td style="vertical-align:top;">:</td><td><div><table><tr><td style="font-weight:bold;vertical-align:top;">HTTP_ACCEPT</td><td style="vertical-align:top;">:</td><td><div>text/html,application/xhtml+xml,application/xml;q=0.9,*/*;q=0.8</div></td></tr><tr><td style="font-weight:bold;vertical-align:top;">HTTP_ACCEPT_ENCODING</td><td style="vertical-align:top;">:</td><td><div>gzip, deflate</div></td></tr><tr><td style="font-weight:bold;vertical-align:top;">HTTP_ACCEPT_LANGUAGE</td><td style="vertical-align:top;">:</td><td><div>es-AR,es;q=0.8,en-US;q=0.5,en;q=0.3</div></td></tr><tr><td style="font-weight:bold;vertical-align:top;">HTTP_CONNECTION</td><td style="vertical-align:top;">:</td><td><div>keep-alive</div></td></tr><tr><td style="font-weight:bold;vertical-align:top;">HTTP_COOKIE</td><td style="vertical-align:top;">:</td><td><div>session_id_welcome=127.0.0.1-9535ed6d-e929-434b-95e1-0d9659cfa5a4; session_id_admin=127.0.0.1-0f03cfe0-8f07-4ad6-92c7-5d5e3ae74251; session_id_correlativas=127.0.0.1-50a31805-f94b-4f98-a328-4d1a566a6e73; session_id_universitary_advisor=127.0.0.1-f5190dc2-e083-43fb-90cf-4f58a181b5fe</div></td></tr><tr><td style="font-weight:bold;vertical-align:top;">HTTP_DNT</td><td style="vertical-align:top;">:</td><td><div>1</div></td></tr><tr><td style="font-weight:bold;vertical-align:top;">HTTP_HOST</td><td style="vertical-align:top;">:</td><td><div>127.0.0.1:8000</div></td></tr><tr><td style="font-weight:bold;vertical-align:top;">HTTP_USER_AGENT</td><td style="vertical-align:top;">:</td><td><div>Mozilla/5.0 (X11; Ubuntu; Linux x86_64; rv:39.0) Gecko/20100101 Firefox/39.0</div></td></tr><tr><td style="font-weight:bold;vertical-align:top;">PATH_INFO</td><td style="vertical-align:top;">:</td><td><div>/universitary_advisor/horario</div></td></tr><tr><td style="font-weight:bold;vertical-align:top;">QUERY_STRING</td><td style="vertical-align:top;">:</td><td><div></div></td></tr><tr><td style="font-weight:bold;vertical-align:top;">REMOTE_ADDR</td><td style="vertical-align:top;">:</td><td><div>127.0.0.1</div></td></tr><tr><td style="font-weight:bold;vertical-align:top;">REMOTE_PORT</td><td style="vertical-align:top;">:</td><td><div>36529</div></td></tr><tr><td style="font-weight:bold;vertical-align:top;">REQUEST_METHOD</td><td style="vertical-align:top;">:</td><td><div>GET</div></td></tr><tr><td style="font-weight:bold;vertical-align:top;">SCRIPT_NAME</td><td style="vertical-align:top;">:</td><td><div></div></td></tr><tr><td style="font-weight:bold;vertical-align:top;">SERVER_NAME</td><td style="vertical-align:top;">:</td><td><div>martin-C500</div></td></tr><tr><td style="font-weight:bold;vertical-align:top;">SERVER_PORT</td><td style="vertical-align:top;">:</td><td><div>8000</div></td></tr><tr><td style="font-weight:bold;vertical-align:top;">SERVER_PROTOCOL</td><td style="vertical-align:top;">:</td><td><div>HTTP/1.1</div></td></tr><tr><td style="font-weight:bold;vertical-align:top;">SERVER_SOFTWARE</td><td style="vertical-align:top;">:</td><td><div>Rocket 1.2.6</div></td></tr><tr><td style="font-weight:bold;vertical-align:top;">app_folders</td><td style="vertical-align:top;">:</td><td><div>set([&#x27;/home/martin/apps/web2py/applications/welcome/&#x27;, &#x27;/home/martin/apps/web2py/applications/universitary_advisor/&#x27;, &#x27;/home/martin/apps/web2py/applications/admin/&#x27;])</div></td></tr><tr><td style="font-weight:bold;vertical-align:top;">applications_parent</td><td style="vertical-align:top;">:</td><td><div>/home/martin/apps/web2py</div></td></tr><tr><td style="font-weight:bold;vertical-align:top;">cmd_args</td><td style="vertical-align:top;">:</td><td><div><table></table></div></td></tr><tr><td style="font-weight:bold;vertical-align:top;">cmd_options</td><td style="vertical-align:top;">:</td><td><div>&lt;Values at 0x1bc2170: {&#x27;verbose&#x27;: False, &#x27;ip&#x27;: &#x27;127.0.0.1&#x27;, &#x27;debuglevel&#x27;: 30, &#x27;with_scheduler&#x27;: False, &#x27;ips&#x27;: [&#x27;127.0.1.1&#x27;], &#x27;shutdown_timeout&#x27;: 5, &#x27;taskbar&#x27;: False, &#x27;with_coverage&#x27;: False, &#x27;scheduler_groups&#x27;: None, &#x27;port&#x27;: 8000, &#x27;maxthreads&#x27;: None, &#x27;softcron&#x27;: False, &#x27;server_name&#x27;: &#x27;martin-C500&#x27;, &#x27;bpython&#x27;: False, &#x27;nogui&#x27;: False, &#x27;pid_filename&#x27;: &#x27;httpserver.pid&#x27;, &#x27;print_errors&#x27;: False, &#x27;extcron&#x27;: False, &#x27;runcron&#x27;: False, &#x27;run_system_tests&#x27;: False, &#x27;test&#x27;: None, &#x27;folder&#x27;: &#x27;/home/martin/apps/web2py&#x27;, &#x27;config&#x27;: &#x27;&#x27;, &#x27;minthreads&#x27;: None, &#x27;shell&#x27;: None, &#x27;run&#x27;: &#x27;&#x27;, &#x27;log_filename&#x27;: &#x27;httpserver.log&#x27;, &#x27;profiler_dir&#x27;: None, &#x27;args&#x27;: [&#x27;&#x27;], &#x27;socket_timeout&#x27;: 5, &#x27;ssl_ca_certificate&#x27;: None, &#x27;scheduler&#x27;: None, &#x27;interfaces&#x27;: None, &#x27;ssl_private_key&#x27;: &#x27;&#x27;, &#x27;gae&#x27;: None, &#x27;password&#x27;: &#x27;&lt;ask&gt;&#x27;, &#x27;request_queue_size&#x27;: 5, &#x27;ssl_certificate&#x27;: &#x27;&#x27;, &#x27;cronjob&#x27;: False, &#x27;numthreads&#x27;: None, &#x27;quiet&#x27;: False, &#x27;import_models&#x27;: False, &#x27;timeout&#x27;: 10, &#x27;plain&#x27;: False, &#x27;nobanner&#x27;: False}&gt;</div></td></tr><tr><td style="font-weight:bold;vertical-align:top;">db_sessions</td><td style="vertical-align:top;">:</td><td><div>set([])</div></td></tr><tr><td style="font-weight:bold;vertical-align:top;">debugging</td><td style="vertical-align:top;">:</td><td><div>False</div></td></tr><tr><td style="font-weight:bold;vertical-align:top;">gluon_parent</td><td style="vertical-align:top;">:</td><td><div>/home/martin/apps/web2py</div></td></tr><tr><td style="font-weight:bold;vertical-align:top;">http_accept</td><td style="vertical-align:top;">:</td><td><div>text/html,application/xhtml+xml,application/xml;q=0.9,*/*;q=0.8</div></td></tr><tr><td style="font-weight:bold;vertical-align:top;">http_accept_encoding</td><td style="vertical-align:top;">:</td><td><div>gzip, deflate</div></td></tr><tr><td style="font-weight:bold;vertical-align:top;">http_accept_language</td><td style="vertical-align:top;">:</td><td><div>es-AR,es;q=0.8,en-US;q=0.5,en;q=0.3</div></td></tr><tr><td style="font-weight:bold;vertical-align:top;">http_connection</td><td style="vertical-align:top;">:</td><td><div>keep-alive</div></td></tr><tr><td style="font-weight:bold;vertical-align:top;">http_cookie</td><td style="vertical-align:top;">:</td><td><div>session_id_welcome=127.0.0.1-9535ed6d-e929-434b-95e1-0d9659cfa5a4; session_id_admin=127.0.0.1-0f03cfe0-8f07-4ad6-92c7-5d5e3ae74251; session_id_correlativas=127.0.0.1-50a31805-f94b-4f98-a328-4d1a566a6e73; session_id_universitary_advisor=127.0.0.1-f5190dc2-e083-43fb-90cf-4f58a181b5fe</div></td></tr><tr><td style="font-weight:bold;vertical-align:top;">http_dnt</td><td style="vertical-align:top;">:</td><td><div>1</div></td></tr><tr><td style="font-weight:bold;vertical-align:top;">http_host</td><td style="vertical-align:top;">:</td><td><div>127.0.0.1:8000</div></td></tr><tr><td style="font-weight:bold;vertical-align:top;">http_user_agent</td><td style="vertical-align:top;">:</td><td><div>Mozilla/5.0 (X11; Ubuntu; Linux x86_64; rv:39.0) Gecko/20100101 Firefox/39.0</div></td></tr><tr><td style="font-weight:bold;vertical-align:top;">is_jython</td><td style="vertical-align:top;">:</td><td><div>False</div></td></tr><tr><td style="font-weight:bold;vertical-align:top;">is_pypy</td><td style="vertical-align:top;">:</td><td><div>False</div></td></tr><tr><td style="font-weight:bold;vertical-align:top;">is_source</td><td style="vertical-align:top;">:</td><td><div>True</div></td></tr><tr><td style="font-weight:bold;vertical-align:top;">local_hosts</td><td style="vertical-align:top;">:</td><td><div><table><tr><td><div>::1</div></td></tr><tr><td><div>127.0.1.1</div></td></tr><tr><td><div>::ffff:127.0.0.1</div></td></tr><tr><td><div>127.0.0.1</div></td></tr><tr><td><div>martin-C500</div></td></tr></table></div></td></tr><tr><td style="font-weight:bold;vertical-align:top;">path_info</td><td style="vertical-align:top;">:</td><td><div>/universitary_advisor/horario</div></td></tr><tr><td style="font-weight:bold;vertical-align:top;">query_string</td><td style="vertical-align:top;">:</td><td><div></div></td></tr><tr><td style="font-weight:bold;vertical-align:top;">remote_addr</td><td style="vertical-align:top;">:</td><td><div>127.0.0.1</div></td></tr><tr><td style="font-weight:bold;vertical-align:top;">remote_port</td><td style="vertical-align:top;">:</td><td><div>36529</div></td></tr><tr><td style="font-weight:bold;vertical-align:top;">request_method</td><td style="vertical-align:top;">:</td><td><div>GET</div></td></tr><tr><td style="font-weight:bold;vertical-align:top;">request_uri</td><td style="vertical-align:top;">:</td><td><div>/universitary_advisor/horario</div></td></tr><tr><td style="font-weight:bold;vertical-align:top;">script_name</td><td style="vertical-align:top;">:</td><td><div></div></td></tr><tr><td style="font-weight:bold;vertical-align:top;">server_name</td><td style="vertical-align:top;">:</td><td><div>martin-C500</div></td></tr><tr><td style="font-weight:bold;vertical-align:top;">server_port</td><td style="vertical-align:top;">:</td><td><div>8000</div></td></tr><tr><td style="font-weight:bold;vertical-align:top;">server_protocol</td><td style="vertical-align:top;">:</td><td><div>HTTP/1.1</div></td></tr><tr><td style="font-weight:bold;vertical-align:top;">server_software</td><td style="vertical-align:top;">:</td><td><div>Rocket 1.2.6</div></td></tr><tr><td style="font-weight:bold;vertical-align:top;">web2py_path</td><td style="vertical-align:top;">:</td><td><div>/home/martin/apps/web2py</div></td></tr><tr><td style="font-weight:bold;vertical-align:top;">web2py_version</td><td style="vertical-align:top;">:</td><td><div>2.11.2-stable+timestamp.2015.05.30.16.33.24</div></td></tr><tr><td style="font-weight:bold;vertical-align:top;">wsgi.errors</td><td style="vertical-align:top;">:</td><td><div>&lt;open file &#x27;&lt;stderr&gt;&#x27;, mode &#x27;w&#x27; at 0x7f107c748270&gt;</div></td></tr><tr><td style="font-weight:bold;vertical-align:top;">wsgi.file_wrapper</td><td style="vertical-align:top;">:</td><td><div>&lt;class wsgiref.util.FileWrapper at 0x1b2b6d0&gt;</div></td></tr><tr><td style="font-weight:bold;vertical-align:top;">wsgi.input</td><td style="vertical-align:top;">:</td><td><div>&lt;socket._fileobject object at 0x7f105cf17550&gt;</div></td></tr><tr><td style="font-weight:bold;vertical-align:top;">wsgi.multiprocess</td><td style="vertical-align:top;">:</td><td><div>False</div></td></tr><tr><td style="font-weight:bold;vertical-align:top;">wsgi.multithread</td><td style="vertical-align:top;">:</td><td><div>True</div></td></tr><tr><td style="font-weight:bold;vertical-align:top;">wsgi.run_once</td><td style="vertical-align:top;">:</td><td><div>False</div></td></tr><tr><td style="font-weight:bold;vertical-align:top;">wsgi.url_scheme</td><td style="vertical-align:top;">:</td><td><div>http</div></td></tr><tr><td style="font-weight:bold;vertical-align:top;">wsgi.version</td><td style="vertical-align:top;">:</td><td><div><table><tr><td><div>1</div></td></tr><tr><td><div>0</div></td></tr></table></div></td></tr><tr><td style="font-weight:bold;vertical-align:top;">wsgi_errors</td><td style="vertical-align:top;">:</td><td><div>&lt;open file &#x27;&lt;stderr&gt;&#x27;, mode &#x27;w&#x27; at 0x7f107c748270&gt;</div></td></tr><tr><td style="font-weight:bold;vertical-align:top;">wsgi_file_wrapper</td><td style="vertical-align:top;">:</td><td><div>&lt;class wsgiref.util.FileWrapper at 0x1b2b6d0&gt;</div></td></tr><tr><td style="font-weight:bold;vertical-align:top;">wsgi_input</td><td style="vertical-align:top;">:</td><td><div>&lt;socket._fileobject object at 0x7f105cf17550&gt;</div></td></tr><tr><td style="font-weight:bold;vertical-align:top;">wsgi_multiprocess</td><td style="vertical-align:top;">:</td><td><div>False</div></td></tr><tr><td style="font-weight:bold;vertical-align:top;">wsgi_multithread</td><td style="vertical-align:top;">:</td><td><div>True</div></td></tr><tr><td style="font-weight:bold;vertical-align:top;">wsgi_run_once</td><td style="vertical-align:top;">:</td><td><div>False</div></td></tr><tr><td style="font-weight:bold;vertical-align:top;">wsgi_url_scheme</td><td style="vertical-align:top;">:</td><td><div>http</div></td></tr><tr><td style="font-weight:bold;vertical-align:top;">wsgi_version</td><td style="vertical-align:top;">:</td><td><div><table><tr><td><div>1</div></td></tr><tr><td><div>0</div></td></tr></table></div></td></tr></table></div></td></tr><tr><td style="font-weight:bold;vertical-align:top;">extension</td><td style="vertical-align:top;">:</td><td><div>html</div></td></tr><tr><td style="font-weight:bold;vertical-align:top;">folder</td><td style="vertical-align:top;">:</td><td><div>/home/martin/apps/web2py/applications/universitary_advisor/</div></td></tr><tr><td style="font-weight:bold;vertical-align:top;">function</td><td style="vertical-align:top;">:</td><td><div>index</div></td></tr><tr><td style="font-weight:bold;vertical-align:top;">global_settings</td><td style="vertical-align:top;">:</td><td><div><table><tr><td style="font-weight:bold;vertical-align:top;">app_folders</td><td style="vertical-align:top;">:</td><td><div>set([&#x27;/home/martin/apps/web2py/applications/welcome/&#x27;, &#x27;/home/martin/apps/web2py/applications/universitary_advisor/&#x27;, &#x27;/home/martin/apps/web2py/applications/admin/&#x27;])</div></td></tr><tr><td style="font-weight:bold;vertical-align:top;">applications_parent</td><td style="vertical-align:top;">:</td><td><div>/home/martin/apps/web2py</div></td></tr><tr><td style="font-weight:bold;vertical-align:top;">cmd_args</td><td style="vertical-align:top;">:</td><td><div><table></table></div></td></tr><tr><td style="font-weight:bold;vertical-align:top;">cmd_options</td><td style="vertical-align:top;">:</td><td><div>&lt;Values at 0x1bc2170: {&#x27;verbose&#x27;: False, &#x27;ip&#x27;: &#x27;127.0.0.1&#x27;, &#x27;debuglevel&#x27;: 30, &#x27;with_scheduler&#x27;: False, &#x27;ips&#x27;: [&#x27;127.0.1.1&#x27;], &#x27;shutdown_timeout&#x27;: 5, &#x27;taskbar&#x27;: False, &#x27;with_coverage&#x27;: False, &#x27;scheduler_groups&#x27;: None, &#x27;port&#x27;: 8000, &#x27;maxthreads&#x27;: None, &#x27;softcron&#x27;: False, &#x27;server_name&#x27;: &#x27;martin-C500&#x27;, &#x27;bpython&#x27;: False, &#x27;nogui&#x27;: False, &#x27;pid_filename&#x27;: &#x27;httpserver.pid&#x27;, &#x27;print_errors&#x27;: False, &#x27;extcron&#x27;: False, &#x27;runcron&#x27;: False, &#x27;run_system_tests&#x27;: False, &#x27;test&#x27;: None, &#x27;folder&#x27;: &#x27;/home/martin/apps/web2py&#x27;, &#x27;config&#x27;: &#x27;&#x27;, &#x27;minthreads&#x27;: None, &#x27;shell&#x27;: None, &#x27;run&#x27;: &#x27;&#x27;, &#x27;log_filename&#x27;: &#x27;httpserver.log&#x27;, &#x27;profiler_dir&#x27;: None, &#x27;args&#x27;: [&#x27;&#x27;], &#x27;socket_timeout&#x27;: 5, &#x27;ssl_ca_certificate&#x27;: None, &#x27;scheduler&#x27;: None, &#x27;interfaces&#x27;: None, &#x27;ssl_private_key&#x27;: &#x27;&#x27;, &#x27;gae&#x27;: None, &#x27;password&#x27;: &#x27;&lt;ask&gt;&#x27;, &#x27;request_queue_size&#x27;: 5, &#x27;ssl_certificate&#x27;: &#x27;&#x27;, &#x27;cronjob&#x27;: False, &#x27;numthreads&#x27;: None, &#x27;quiet&#x27;: False, &#x27;import_models&#x27;: False, &#x27;timeout&#x27;: 10, &#x27;plain&#x27;: False, &#x27;nobanner&#x27;: False}&gt;</div></td></tr><tr><td style="font-weight:bold;vertical-align:top;">db_sessions</td><td style="vertical-align:top;">:</td><td><div>set([])</div></td></tr><tr><td style="font-weight:bold;vertical-align:top;">debugging</td><td style="vertical-align:top;">:</td><td><div>False</div></td></tr><tr><td style="font-weight:bold;vertical-align:top;">gluon_parent</td><td style="vertical-align:top;">:</td><td><div>/home/martin/apps/web2py</div></td></tr><tr><td style="font-weight:bold;vertical-align:top;">is_jython</td><td style="vertical-align:top;">:</td><td><div>False</div></td></tr><tr><td style="font-weight:bold;vertical-align:top;">is_pypy</td><td style="vertical-align:top;">:</td><td><div>False</div></td></tr><tr><td style="font-weight:bold;vertical-align:top;">is_source</td><td style="vertical-align:top;">:</td><td><div>True</div></td></tr><tr><td style="font-weight:bold;vertical-align:top;">local_hosts</td><td style="vertical-align:top;">:</td><td><div><table><tr><td><div>::1</div></td></tr><tr><td><div>127.0.1.1</div></td></tr><tr><td><div>::ffff:127.0.0.1</div></td></tr><tr><td><div>127.0.0.1</div></td></tr><tr><td><div>martin-C500</div></td></tr></table></div></td></tr><tr><td style="font-weight:bold;vertical-align:top;">web2py_version</td><td style="vertical-align:top;">:</td><td><div>2.11.2-stable+timestamp.2015.05.30.16.33.24</div></td></tr></table></div></td></tr><tr><td style="font-weight:bold;vertical-align:top;">is_https</td><td style="vertical-align:top;">:</td><td><div>False</div></td></tr><tr><td style="font-weight:bold;vertical-align:top;">is_local</td><td style="vertical-align:top;">:</td><td><div>True</div></td></tr><tr><td style="font-weight:bold;vertical-align:top;">is_restful</td><td style="vertical-align:top;">:</td><td><div>False</div></td></tr><tr><td style="font-weight:bold;vertical-align:top;">is_sheduler</td><td style="vertical-align:top;">:</td><td><div>None</div></td></tr><tr><td style="font-weight:bold;vertical-align:top;">is_shell</td><td style="vertical-align:top;">:</td><td><div>None</div></td></tr><tr><td style="font-weight:bold;vertical-align:top;">now</td><td style="vertical-align:top;">:</td><td><div>datetime.datetime(2015, 8, 11, 15, 9, 0, 383529)</div></td></tr><tr><td style="font-weight:bold;vertical-align:top;">raw_args</td><td style="vertical-align:top;">:</td><td><div></div></td></tr><tr><td style="font-weight:bold;vertical-align:top;">raw_extension</td><td style="vertical-align:top;">:</td><td><div>None</div></td></tr><tr><td style="font-weight:bold;vertical-align:top;">url</td><td style="vertical-align:top;">:</td><td><div>/universitary_advisor/horario</div></td></tr><tr><td style="font-weight:bold;vertical-align:top;">utcnow</td><td style="vertical-align:top;">:</td><td><div>datetime.datetime(2015, 8, 11, 18, 9, 0, 383554)</div></td></tr><tr><td style="font-weight:bold;vertical-align:top;">wsgi</td><td style="vertical-align:top;">:</td><td><div>&lt;gluon.main.LazyWSGI object at 0x7f105cf66750&gt;</div></td></tr></table></div>'
tRp58
sS'frames'
p59
(lp60
(dp61
S'file'
p62
S'/home/martin/apps/web2py/gluon/restricted.py'
p63
sS'dump'
p64
(dp65
S'environment'
p66
S"{'A': <class 'gluon.html.A'>, 'ANY_OF': <class 'gluon.validators.ANY_OF'>, 'ASSIGNJS': <function ASSIGNJS>, 'AppConfig': <function AppConfig>, 'Auth': <class 'gluon.tools.Auth'>, 'B': <class 'gluon.html.B'>, 'BEAUTIFY': <class 'gluon.html.BEAUTIFY'>, 'BODY': <class 'gluon.html.BODY'>, 'BR': <class 'gluon.html.BR'>, 'BUTTON': <class 'gluon.html.BUTTON'>, ...}"
p67
sS'ccode'
p68
S'<code object <module> at 0x7f105cf435b0, file "/...ersitary_advisor/controllers/horario.py", line 3>'
p69
ssS'lnum'
p70
I227
sS'lines'
p71
(dp72
I224
S'            ccode = code'
p73
sI225
S'        else:'
p74
sI226
S'            ccode = compile2(code, layer)'
p75
sI227
S'        exec ccode in environment'
p76
sI228
S'    except HTTP:'
p77
sI229
S'        raise'
p78
sI230
S'    except RestrictedError:'
p79
sI231
S'        # do not encapsulate (obfuscate) the original RestrictedError'
p80
sI222
S'    try:'
p81
sI223
S'        if isinstance(code, types.CodeType):'
p82
ssS'call'
p83
S"(code='# -*- coding: utf-8 -*-\\n# intente algo como\\ndef ... = grid)\\n\\nresponse._vars=response._caller(index)\\n', environment={'A': <class 'gluon.html.A'>, 'ANY_OF': <class 'gluon.validators.ANY_OF'>, 'ASSIGNJS': <function ASSIGNJS>, 'AppConfig': <function AppConfig>, 'Auth': <class 'gluon.tools.Auth'>, 'B': <class 'gluon.html.B'>, 'BEAUTIFY': <class 'gluon.html.BEAUTIFY'>, 'BODY': <class 'gluon.html.BODY'>, 'BR': <class 'gluon.html.BR'>, 'BUTTON': <class 'gluon.html.BUTTON'>, ...}, layer='/home/martin/apps/web2py/applications/universitary_advisor/controllers/horario.py')"
p84
sS'func'
p85
S'restricted'
p86
sa(dp87
g62
S'/home/martin/apps/web2py/applications/universitary_advisor/controllers/horario.py'
p88
sg64
(dp89
sg70
I7
sg71
(dp90
I1
S'# -*- coding: utf-8 -*-'
p91
sI2
S'# intente algo como'
p92
sI3
S'def index():'
p93
sI4
S'    grid = SQLFORM.smartgrid(db.horario_clases)'
p94
sI5
S'    return dict(message="hello from horario.py", grid = grid)'
p95
ssg83
S'()'
p96
sg85
S'<module>'
p97
sa(dp98
g62
S'/home/martin/apps/web2py/gluon/globals.py'
p99
sg64
(dp100
S'self'
p101
S'undefined'
p102
sS'f'
S'<function index>'
p103
ssg70
I412
sg71
(dp104
I416
S"        self.generic_patterns = ['*']"
p105
sI407
S"        self.flash = ''            # used by the default view layout"
p106
sI408
S'        self.meta = Storage()      # used by web2py_ajax.html'
p107
sI409
S'        self.menu = []             # used by the default view layout'
p108
sI410
S'        self.files = []            # used by web2py_ajax.html'
p109
sI411
S'        self._vars = None'
p110
sI412
S'        self._caller = lambda f: f()'
p111
sI413
S'        self._view_environment = None'
p112
sI414
S'        self._custom_commit = None'
p113
sI415
S'        self._custom_rollback = None'
p114
ssg83
S'(f=<function index>)'
p115
sg85
S'<lambda>'
p116
sa(dp117
g62
S'/home/martin/apps/web2py/applications/universitary_advisor/controllers/horario.py'
p118
sg64
(dp119
S'global db'
p120
S'<DAL uri="sqlite://storage.sqlite">'
p121
sS'global SQLFORM'
p122
S"<class 'gluon.sqlhtml.SQLFORM'>"
p123
sS'SQLFORM.smartgrid'
p124
S'<function smartgrid>'
p125
sS'grid'
p126
g102
sS'db.horario_clases'
p127
S'<Table horario_clases (id,turno,materia,comision,dia,modulo)>'
p128
ssg70
I4
sg71
(dp129
I1
S'# -*- coding: utf-8 -*-'
p130
sI2
S'# intente algo como'
p131
sI3
S'def index():'
p132
sI4
S'    grid = SQLFORM.smartgrid(db.horario_clases)'
p133
sI5
S'    return dict(message="hello from horario.py", grid = grid)'
p134
ssg83
S'()'
p135
sg85
S'index'
p136
sa(dp137
g62
S'/home/martin/apps/web2py/gluon/sqlhtml.py'
p138
sg64
(dp139
S'user_signature'
p140
S'True'
p141
sS'kwargs'
p142
g45
ssg70
I3027
sg71
(dp143
I3022
S'                                A(SPAN(t), cid=request.cid, _href=url('
p144
sI3023
S'                                    args=[args0, row[id_field_name]])))'
p145
sI3024
S'        links += linked'
p146
sI3025
S'        grid = SQLFORM.grid(query, args=request.args[:nargs], links=links,'
p147
sI3026
S'                            links_in_grid=links_in_grid,'
p148
sI3027
S'                            user_signature=user_signature, **kwargs)'
p149
sI3028
S''
sI3029
S'        if isinstance(grid, DIV):'
p150
sI3030
S'            header = table._plural'
p151
sI3031
S'            next = grid.create_form or grid.update_form or grid.view_form'
p152
ssg83
S"(table=<Table horario_clases (id,turno,materia,comision,dia,modulo)>, constraints={}, linked_tables=['auth_user', 'auth_group', 'auth_membership', '..._academico', 'turno', 'modulo', 'horario_clases'], links=[], links_in_grid=True, args=[], user_signature=True, divider='>', breadcrumbs_class='', **kwargs={})"
p153
sg85
S'smartgrid'
p154
sa(dp155
g62
S'/home/martin/apps/web2py/gluon/sqlhtml.py'
p156
sg64
(dp157
S'field.represent'
p158
S'<pydal.helpers.methods._repr_ref_list object>'
p159
sS'field'
p160
S'<pydal.objects.Field object>'
p161
sS'row'
p162
S"<Row {'materia': 26L, 'modulo': [1L, 2L], 'dia': '3', 'comision': '1', 'turno': 1L, 'id': 1L}>"
p163
sS'value'
p164
S'[1L, 2L]'
p165
sS'nvalue'
p166
S"'Administracion de Recursos'"
p167
ssg70
I2698
sg71
(dp168
I2693
S'                                    except KeyError:'
p169
sI2694
S'                                        nvalue = None'
p170
sI2695
S'                                repr_cache[field][value] = nvalue'
p171
sI2696
S'                        else:'
p172
sI2697
S'                            try:'
p173
sI2698
S'                                nvalue = field.represent(value, row)'
p174
sI2699
S'                            except KeyError:'
p175
sI2700
S'                                try:'
p176
sI2701
S'                                    nvalue = field.represent('
p177
sI2702
S'                                        value, row[field.tablename])'
p178
ssg83
S"(query=<Query (horario_clases.id IS NOT NULL)>, fields=[<pydal.objects.Field object>, <pydal.objects.Field object>, <pydal.objects.Field object>, <pydal.objects.Field object>, <pydal.objects.Field object>, <pydal.objects.Field object>], field_id=<pydal.objects.Field object>, left=None, headers={}, orderby=<pydal.objects.Field object>, groupby=None, searchable=True, sortable=True, paginate=20, deletable=None, editable=None, details=True, selectable=None, create=None, csv=True, links=[], links_in_grid=True, upload=<function <lambda>>, args=['horario_clases'], user_signature=True, maxtextlengths={}, maxtextlength=20, onvalidation=None, onfailure=None, oncreate=None, onupdate=None, ondelete=None, sorter_icons=(<gluon.html.XML object>, <gluon.html.XML object>), ui={'button': 'button btn btn-default', 'buttonadd': 'icon plus icon-plus glyphicon glyphicon-plus', 'buttonback': 'icon leftarrow icon-arrow-left glyphicon glyphicon-arrow-left', 'buttondelete': 'icon trash icon-trash glyphicon glyphicon-trash', 'buttonedit': 'icon pen icon-pencil glyphicon glyphicon-pencil', 'buttonexport': 'icon downarrow icon-download glyphicon glyphicon-download', 'buttontable': 'icon rightarrow icon-arrow-right glyphicon glyphicon-arrow-right', 'buttontext': 'buttontext button', 'buttonview': 'icon magnifier icon-zoom-in glyphicon glyphicon-zoom-in', 'content': '', ...}, showbuttontext=True, _class='web2py_grid', formname='web2py_grid', search_widget=<function <lambda>>, advanced_search=True, ignore_rw=False, formstyle='bootstrap3_inline', exportclasses=None, formargs={}, createargs={}, editargs={}, viewargs={}, selectable_submit_button='Submit', buttons_placement='right', links_placement='right', noconfirm=False, cache_count=None, client_side_delete=False, ignore_common_filters=None, auto_pagination=True, use_cursor=False)"
p179
sg85
S'grid'
p180
sa(dp181
g62
S'/home/martin/apps/web2py/gluon/packages/dal/pydal/helpers/methods.py'
p182
sg64
(dp183
S'global _fieldformat'
p184
S'<function _fieldformat>'
p185
sS'x'
g102
sS'self'
p186
S'<pydal.helpers.methods._repr_ref_list object>'
p187
sS'self.ref'
p188
S'<Table modulo (id,turno,hora_inicio,numero_modulo)>'
p189
sS'value'
p190
S'[1L, 2L]'
p191
ssg70
I280
sg71
(dp192
I275
S'            refs = reduce(lambda a, b: a & b, [count(value[i:i+30])'
p193
sI276
S'                          for i in rx])'
p194
sI277
S'        else:'
p195
sI278
S'            refs = db(id.belongs(value)).select(id)'
p196
sI279
S"        return refs and ', '.join("
p197
sI280
S"            _fieldformat(self.ref, x.id) for x in value) or ''"
p198
sI281
S''
sI282
S''
sI283
S'def auto_represent(field):'
p199
sI284
S'    if field.represent:'
p200
ssg83
S"(self=<pydal.helpers.methods._repr_ref_list object>, value=[1L, 2L], row=<Row {'materia': 26L, 'modulo': [1L, 2L], 'dia': '3', 'comision': '1', 'turno': 1L, 'id': 1L}>)"
p201
sg85
S'__call__'
p202
sa(dp203
g62
S'/home/martin/apps/web2py/gluon/packages/dal/pydal/helpers/methods.py'
p204
sg64
(dp205
S'global _fieldformat'
p206
S'<function _fieldformat>'
p207
sS'self'
p208
S'<pydal.helpers.methods._repr_ref_list object>'
p209
sS'value'
p210
g102
sS'x.id'
p211
S'1L'
p212
sS'self.ref'
p213
S'<Table modulo (id,turno,hora_inicio,numero_modulo)>'
p214
sS'x'
S'1L'
p215
ssg70
I280
sg71
(dp216
I275
S'            refs = reduce(lambda a, b: a & b, [count(value[i:i+30])'
p217
sI276
S'                          for i in rx])'
p218
sI277
S'        else:'
p219
sI278
S'            refs = db(id.belongs(value)).select(id)'
p220
sI279
S"        return refs and ', '.join("
p221
sI280
S"            _fieldformat(self.ref, x.id) for x in value) or ''"
p222
sI281
S''
sI282
S''
sI283
S'def auto_represent(field):'
p223
sI284
S'    if field.represent:'
p224
ssg83
S'((x=1L,))'
p225
sg85
S'<genexpr>'
p226
sa(dp227
g62
S'/home/martin/apps/web2py/gluon/packages/dal/pydal/helpers/methods.py'
p228
sg64
(dp229
S'r'
S'<Table modulo (id,turno,hora_inicio,numero_modulo)>'
p230
sS'id'
p231
S'1L'
p232
sS'row'
p233
g102
ssg70
I246
sg71
(dp234
I241
S'        field_validators = [field_validators]'
p235
sI242
S'    return field_validators'
p236
sI243
S''
sI244
S''
sI245
S'def _fieldformat(r, id):'
p237
sI246
S'    row = r(id)'
p238
sI247
S'    if not row:'
p239
sI248
S'        return str(id)'
p240
sI249
S"    elif hasattr(r, '_format') and isinstance(r._format, str):"
p241
sI250
S'        return r._format % row'
p242
ssg83
S'(r=<Table modulo (id,turno,hora_inicio,numero_modulo)>, id=1L)'
p243
sg85
S'_fieldformat'
p244
sa(dp245
g62
S'/home/martin/apps/web2py/gluon/packages/dal/pydal/objects.py'
p246
sg64
(dp247
S'orderby_on_limitby'
p248
g102
sS').first'
p249
g102
sS'builtinFalse'
p250
S'False'
p251
ssg70
I512
sg71
(dp252
I512
S'                    orderby_on_limitby=False).first()'
p253
sI513
S'            if record:'
p254
sI514
S'                for k,v in iteritems(kwargs):'
p255
sI515
S'                    if record[k]!=v: return None'
p256
sI516
S'            return record'
p257
sI507
S'            else:'
p258
sI508
S'                record = self._db(self._id == key).select('
p259
sI509
S'                    limitby=(0,1),'
p260
sI510
S'                    for_update=for_update,'
p261
sI511
S'                    orderby=orderby,'
p262
ssg83
S'(self=<Table modulo (id,turno,hora_inicio,numero_modulo)>, key=1L, **kwargs={})'
p263
sg85
g202
sa(dp264
g62
S'/home/martin/apps/web2py/gluon/packages/dal/pydal/objects.py'
p265
sg64
(dp266
S'self.query'
p267
S'<Query (modulo.id = 1)>'
p268
sS'adapter.select'
p269
S'<bound method SQLiteAdapter.select of <pydal.adapters.sqlite.SQLiteAdapter object>>'
p270
sS'fields'
p271
S'[<pydal.objects.Field object>, <pydal.objects.Field object>, <pydal.objects.Field object>, <pydal.objects.Field object>]'
p272
sS'adapter'
p273
S'<pydal.adapters.sqlite.SQLiteAdapter object>'
p274
sS'attributes'
p275
S"{'for_update': False, 'limitby': (0, 1), 'orderby': None, 'orderby_on_limitby': False}"
p276
sS'self'
p277
S'<Set (modulo.id = 1)>'
p278
ssg70
I1986
sg71
(dp279
I1984
S"                                    attributes.get('groupby',None))"
p280
sI1985
S'        fields = adapter.expand_all(fields, tablenames)'
p281
sI1986
S'        return adapter.select(self.query,fields,attributes)'
p282
sI1987
S''
sI1988
S'    def iterselect(self, *fields, **attributes):'
p283
sI1989
S'        adapter = self.db._adapter'
p284
sI1990
S'        tablenames = adapter.tables(self.query,'
p285
sI1981
S"                                    attributes.get('join',None),"
p286
sI1982
S"                                    attributes.get('left',None),"
p287
sI1983
S"                                    attributes.get('orderby',None),"
p288
ssg83
S"(self=<Set (modulo.id = 1)>, *fields=[<pydal.objects.Field object>, <pydal.objects.Field object>, <pydal.objects.Field object>, <pydal.objects.Field object>], **attributes={'for_update': False, 'limitby': (0, 1), 'orderby': None, 'orderby_on_limitby': False})"
p289
sg85
S'select'
p290
sa(dp291
g62
S'/home/martin/apps/web2py/gluon/packages/dal/pydal/adapters/sqlite.py'
p292
sg64
(dp293
S'fields'
p294
S'[<pydal.objects.Field object>, <pydal.objects.Field object>, <pydal.objects.Field object>, <pydal.objects.Field object>]'
p295
sS'self'
p296
S'<pydal.adapters.sqlite.SQLiteAdapter object>'
p297
sS').select'
p298
S'<bound method SQLiteAdapter.select of <pydal.adapters.sqlite.SQLiteAdapter object>>'
p299
sS'attributes'
p300
S"{'for_update': False, 'limitby': (0, 1), 'orderby': None, 'orderby_on_limitby': False}"
p301
sS'global SQLiteAdapter'
p302
S"<class 'pydal.adapters.sqlite.SQLiteAdapter'>"
p303
sS'query'
p304
S'<Query (modulo.id = 1)>'
p305
sS'builtinsuper'
p306
S"<type 'super'>"
p307
ssg70
I122
sg71
(dp308
I117
S'        Note that the entire database, rather than one record, is locked'
p309
sI118
S'        (it will be locked eventually anyway by the following UPDATE).'
p310
sI119
S'        """'
p311
sI120
S"        if attributes.get('for_update', False) and not 'cache' in attributes:"
p312
sI121
S"            self.execute('BEGIN IMMEDIATE TRANSACTION;')"
p313
sI122
S'        return super(SQLiteAdapter, self).select(query, fields, attributes)'
p314
sI123
S''
sI124
S''
sI125
S'SPATIALLIBS = {'
p315
sI126
S"    'Windows':'libspatialite',"
p316
ssg83
S"(self=<pydal.adapters.sqlite.SQLiteAdapter object>, query=<Query (modulo.id = 1)>, fields=[<pydal.objects.Field object>, <pydal.objects.Field object>, <pydal.objects.Field object>, <pydal.objects.Field object>], attributes={'for_update': False, 'limitby': (0, 1), 'orderby': None, 'orderby_on_limitby': False})"
p317
sg85
g290
sa(dp318
g62
S'/home/martin/apps/web2py/gluon/packages/dal/pydal/adapters/base.py'
p319
sg64
(dp320
S'fields'
p321
S'[<pydal.objects.Field object>, <pydal.objects.Field object>, <pydal.objects.Field object>, <pydal.objects.Field object>]'
p322
sS'self'
p323
S'<pydal.adapters.sqlite.SQLiteAdapter object>'
p324
sS'attributes'
p325
S"{'for_update': False, 'limitby': (0, 1), 'orderby': None, 'orderby_on_limitby': False}"
p326
sS'self._select_aux'
p327
S'<bound method SQLiteAdapter._select_aux of <pydal.adapters.sqlite.SQLiteAdapter object>>'
p328
sS'sql'
p329
S"'SELECT  modulo.id, modulo.turno, modulo.hora_ini...OM modulo WHERE (modulo.id = 1) LIMIT 1 OFFSET 0;'"
p330
ssg70
I1258
sg71
(dp331
I1253
S'            return cache_model('
p332
sI1254
S'                key,'
p333
sI1255
S'                lambda self=self,args=args:self._select_aux(*args),'
p334
sI1256
S'                time_expire)'
p335
sI1257
S'        else:'
p336
sI1258
S'            return self._select_aux(sql,fields,attributes)'
p337
sI1259
S''
sI1260
S'    def iterselect(self, query, fields, attributes):'
p338
sI1261
S'        sql = self._select(query, fields, attributes)'
p339
sI1262
S"        cacheable = attributes.get('cacheable', False)"
p340
ssg83
S"(self=<pydal.adapters.sqlite.SQLiteAdapter object>, query=<Query (modulo.id = 1)>, fields=[<pydal.objects.Field object>, <pydal.objects.Field object>, <pydal.objects.Field object>, <pydal.objects.Field object>], attributes={'for_update': False, 'limitby': (0, 1), 'orderby': None, 'orderby_on_limitby': False})"
p341
sg85
g290
sa(dp342
g62
S'/home/martin/apps/web2py/gluon/packages/dal/pydal/adapters/base.py'
p343
sg64
(dp344
S'rows'
p345
S"[(1, u'1', u'asda6542516', u'0')]"
p346
sS'fields'
p347
S'[<pydal.objects.Field object>, <pydal.objects.Field object>, <pydal.objects.Field object>, <pydal.objects.Field object>]'
p348
sS'self'
p349
S'<pydal.adapters.sqlite.SQLiteAdapter object>'
p350
sS'cacheable'
p351
g251
sS'self._colnames'
p352
S"['modulo.id', 'modulo.turno', 'modulo.hora_inicio', 'modulo.numero_modulo']"
p353
sS'processor'
p354
S'<bound method SQLiteAdapter.parse of <pydal.adapters.sqlite.SQLiteAdapter object>>'
p355
ssg70
I1239
sg71
(dp356
I1234
S'            rows = list(rows)'
p357
sI1235
S"        limitby = args_get('limitby', None) or (0,)"
p358
sI1236
S'        rows = self.rowslice(rows,limitby[0],None)'
p359
sI1237
S"        processor = args_get('processor', self.parse)"
p360
sI1238
S"        cacheable = args_get('cacheable',False)"
p361
sI1239
S'        return processor(rows,fields,self._colnames,cacheable=cacheable)'
p362
sI1240
S''
sI1241
S'    def select(self, query, fields, attributes):'
p363
sI1242
S'        """'
p364
sI1243
S'        Always returns a Rows object, possibly empty.'
p365
ssg83
S"(self=<pydal.adapters.sqlite.SQLiteAdapter object>, sql='SELECT  modulo.id, modulo.turno, modulo.hora_ini...OM modulo WHERE (modulo.id = 1) LIMIT 1 OFFSET 0;', fields=[<pydal.objects.Field object>, <pydal.objects.Field object>, <pydal.objects.Field object>, <pydal.objects.Field object>], attributes={'for_update': False, 'limitby': (0, 1), 'orderby': None, 'orderby_on_limitby': False})"
p366
sg85
S'_select_aux'
p367
sa(dp368
g62
S'/home/martin/apps/web2py/gluon/packages/dal/pydal/adapters/base.py'
p369
sg64
(dp370
S'fields_virtual'
p371
S"{'modulo': []}"
p372
sS'fields_lazy'
p373
S"{'modulo': []}"
p374
ssg70
I1716
sg71
(dp375
I1711
S'        new_rows = []'
p376
sI1712
S'        (fields_virtual, fields_lazy, tmps) = self._parse_expand_colnames(colnames)'
p377
sI1713
S'        for row in rows:'
p378
sI1714
S'            new_row = self._parse(row, tmps, fields,'
p379
sI1715
S'                                  colnames, blob_decode, cacheable,'
p380
sI1716
S'                                  fields_virtual, fields_lazy)'
p381
sI1717
S'            new_rows.append(new_row)'
p382
sI1718
S'        rowsobj = Rows(self.db, new_rows, colnames, rawrows=rows)'
p383
sI1719
S''
sI1720
S'        # Old stype virtual fields'
p384
ssg83
S"(self=<pydal.adapters.sqlite.SQLiteAdapter object>, rows=[(1, u'1', u'asda6542516', u'0')], fields=[<pydal.objects.Field object>, <pydal.objects.Field object>, <pydal.objects.Field object>, <pydal.objects.Field object>], colnames=['modulo.id', 'modulo.turno', 'modulo.hora_inicio', 'modulo.numero_modulo'], blob_decode=True, cacheable=False)"
p385
sg85
S'parse'
p386
sa(dp387
g62
S'/home/martin/apps/web2py/gluon/packages/dal/pydal/adapters/base.py'
p388
sg64
(dp389
S'blob_decode'
p390
g141
sS'self'
p391
S'<pydal.adapters.sqlite.SQLiteAdapter object>'
p392
sS'ft'
p393
S"'time'"
p394
sS'value'
p395
S"u'asda6542516'"
p396
sS'self.parse_value'
p397
S'<bound method SQLiteAdapter.parse_value of <pydal.adapters.sqlite.SQLiteAdapter object>>'
p398
ssg70
I1629
sg71
(dp399
I1632
S'                colset[fieldname] = value'
p400
sI1633
S''
sI1624
S'                (tablename,fieldname,table,field,ft) = tmp'
p401
sI1625
S'                colset = new_row.get(tablename, None)'
p402
sI1626
S'                if colset is None:'
p403
sI1627
S'                    colset = new_row[tablename] = Row()'
p404
sI1628
S''
sI1629
S'                value = self.parse_value(value,ft,blob_decode)'
p405
sI1630
S'                if field.filter_out:'
p406
sI1631
S'                    value = field.filter_out(value)'
p407
ssg83
S"(self=<pydal.adapters.sqlite.SQLiteAdapter object>, row=(1, u'1', u'asda6542516', u'0'), tmps=[('modulo', 'id', <Table modulo (id,turno,hora_inicio,numero_modulo)>, <pydal.objects.Field object>, 'id'), ('modulo', 'turno', <Table modulo (id,turno,hora_inicio,numero_modulo)>, <pydal.objects.Field object>, 'reference turno'), ('modulo', 'hora_inicio', <Table modulo (id,turno,hora_inicio,numero_modulo)>, <pydal.objects.Field object>, 'time'), ('modulo', 'numero_modulo', <Table modulo (id,turno,hora_inicio,numero_modulo)>, <pydal.objects.Field object>, 'string')], fields=[<pydal.objects.Field object>, <pydal.objects.Field object>, <pydal.objects.Field object>, <pydal.objects.Field object>], colnames=['modulo.id', 'modulo.turno', 'modulo.hora_inicio', 'modulo.numero_modulo'], blob_decode=True, cacheable=False, fields_virtual={'modulo': []}, fields_lazy={'modulo': []})"
p408
sg85
S'_parse'
p409
sa(dp410
g62
S'/home/martin/apps/web2py/gluon/packages/dal/pydal/adapters/base.py'
p411
sg64
(dp412
S'field_type'
p413
S"'time'"
p414
sS'self'
p415
S'<pydal.adapters.sqlite.SQLiteAdapter object>'
p416
sS'self.parsemap'
p417
S"{'bigint': <bound method SQLiteAdapter.parse_integer of <pydal.adapters.sqlite.SQLiteAdapter object>>, 'blob': <bound method SQLiteAdapter.parse_blob of <pydal.adapters.sqlite.SQLiteAdapter object>>, 'boolean': <bound method SQLiteAdapter.parse_boolean of <pydal.adapters.sqlite.SQLiteAdapter object>>, 'date': <bound method SQLiteAdapter.parse_date of <pydal.adapters.sqlite.SQLiteAdapter object>>, 'datetime': <bound method SQLiteAdapter.parse_datetime of <pydal.adapters.sqlite.SQLiteAdapter object>>, 'decimal': <bound method SQLiteAdapter.parse_decimal of <pydal.adapters.sqlite.SQLiteAdapter object>>, 'double': <bound method SQLiteAdapter.parse_double of <pydal.adapters.sqlite.SQLiteAdapter object>>, 'float': <bound method SQLiteAdapter.parse_double of <pydal.adapters.sqlite.SQLiteAdapter object>>, 'id': <bound method SQLiteAdapter.parse_id of <pydal.adapters.sqlite.SQLiteAdapter object>>, 'integer': <bound method SQLiteAdapter.parse_integer of <pydal.adapters.sqlite.SQLiteAdapter object>>, ...}"
p418
sS'value'
p419
S"'asda6542516'"
p420
sS'key'
p421
S"'time'"
p422
ssg70
I1486
sg71
(dp423
I1481
S'            return value'
p424
sI1482
S"        elif field_type == 'blob' and not blob_decode:"
p425
sI1483
S'            return value'
p426
sI1484
S'        else:'
p427
sI1485
S'            key = REGEX_TYPE.match(field_type).group(0)'
p428
sI1486
S'            return self.parsemap[key](value,field_type)'
p429
sI1487
S''
sI1488
S'    def parse_reference(self, value, field_type):'
p430
sI1489
S'        referee = field_type[10:].strip()'
p431
sI1490
S"        if not '.' in referee:"
p432
ssg83
S"(self=<pydal.adapters.sqlite.SQLiteAdapter object>, value='asda6542516', field_type='time', blob_decode=True)"
p433
sg85
S'parse_value'
p434
sa(dp435
g62
S'/home/martin/apps/web2py/gluon/packages/dal/pydal/adapters/base.py'
p436
sg64
(dp437
S'time_items'
p438
g102
sS'].strip'
p439
S'<built-in method strip of str object>'
p440
sS'builtinstr'
p441
S"<type 'str'>"
p442
sS'value'
p443
S"'asda6542516'"
p444
sS'builtinlist'
p445
S"<type 'list'>"
p446
sS').split'
p447
g102
sS'builtinint'
p448
S"<type 'int'>"
p449
sS'builtinmap'
p450
S'<built-in function map>'
p451
ssg70
I1512
sg71
(dp452
I1507
S'    def parse_time(self, value, field_type):'
p453
sI1508
S'        if isinstance(value, datetime.datetime):'
p454
sI1509
S'        # Extract the time portion from the datetime'
p455
sI1510
S'            return value.time()'
p456
sI1511
S'        if not isinstance(value, datetime.time):'
p457
sI1512
S"            time_items = list(map(int,str(value)[:8].strip().split(':')[:3]))"
p458
sI1513
S'            if len(time_items) == 3:'
p459
sI1514
S'                (h, mi, s) = time_items'
p460
sI1515
S'            else:'
p461
sI1516
S'                (h, mi, s) = time_items + [0]'
p462
ssg83
S"(self=<pydal.adapters.sqlite.SQLiteAdapter object>, value='asda6542516', field_type='time')"
p463
sg85
S'parse_time'
p464
sasS'pyver'
p465
S'Python 2.7.3: /usr/bin/python (prefix: /usr)'
p466
sS'session'
p467
g57
(S's\x1a\x00\x00\x00<div><table></table></div>'
tRp468
sS'etype'
p469
S"<type 'exceptions.ValueError'>"
p470
sS'date'
p471
S'Tue Aug 11 15:09:00 2015'
p472
sS'response'
p473
g57
(S's\xfd\x1b\x00\x00<div><table><tr><td style="font-weight:bold;vertical-align:top;">body</td><td style="vertical-align:top;">:</td><td><div>&lt;cStringIO.StringO object at 0x7f105cf1cae8&gt;</div></td></tr><tr><td style="font-weight:bold;vertical-align:top;">cookies</td><td style="vertical-align:top;">:</td><td><div><table><tr><td style="font-weight:bold;vertical-align:top;">session_id_universitary_advisor</td><td style="vertical-align:top;">:</td><td><div>127.0.0.1-f5190dc2-e083-43fb-90cf-4f58a181b5fe<table><tr><td style="font-weight:bold;vertical-align:top;">comment</td><td style="vertical-align:top;">:</td><td><div></div></td></tr><tr><td style="font-weight:bold;vertical-align:top;">domain</td><td style="vertical-align:top;">:</td><td><div></div></td></tr><tr><td style="font-weight:bold;vertical-align:top;">expires</td><td style="vertical-align:top;">:</td><td><div></div></td></tr><tr><td style="font-weight:bold;vertical-align:top;">httponly</td><td style="vertical-align:top;">:</td><td><div></div></td></tr><tr><td style="font-weight:bold;vertical-align:top;">max-age</td><td style="vertical-align:top;">:</td><td><div></div></td></tr><tr><td style="font-weight:bold;vertical-align:top;">path</td><td style="vertical-align:top;">:</td><td><div>/</div></td></tr><tr><td style="font-weight:bold;vertical-align:top;">secure</td><td style="vertical-align:top;">:</td><td><div></div></td></tr><tr><td style="font-weight:bold;vertical-align:top;">version</td><td style="vertical-align:top;">:</td><td><div></div></td></tr></table></div></td></tr></table></div></td></tr><tr><td style="font-weight:bold;vertical-align:top;">delimiters</td><td style="vertical-align:top;">:</td><td><div><table><tr><td><div>{{</div></td></tr><tr><td><div>}}</div></td></tr></table></div></td></tr><tr><td style="font-weight:bold;vertical-align:top;">files</td><td style="vertical-align:top;">:</td><td><div><table></table></div></td></tr><tr><td style="font-weight:bold;vertical-align:top;">flash</td><td style="vertical-align:top;">:</td><td><div></div></td></tr><tr><td style="font-weight:bold;vertical-align:top;">form_label_separator</td><td style="vertical-align:top;">:</td><td><div></div></td></tr><tr><td style="font-weight:bold;vertical-align:top;">formstyle</td><td style="vertical-align:top;">:</td><td><div>bootstrap3_inline</div></td></tr><tr><td style="font-weight:bold;vertical-align:top;">generic_patterns</td><td style="vertical-align:top;">:</td><td><div><table><tr><td><div>*</div></td></tr></table></div></td></tr><tr><td style="font-weight:bold;vertical-align:top;">headers</td><td style="vertical-align:top;">:</td><td><div><table><tr><td style="font-weight:bold;vertical-align:top;">X-Powered-By</td><td style="vertical-align:top;">:</td><td><div>web2py</div></td></tr></table></div></td></tr><tr><td style="font-weight:bold;vertical-align:top;">menu</td><td style="vertical-align:top;">:</td><td><div><table><tr><td><div><table><tr><td><div>\xc3\x8dndice</div></td></tr><tr><td><div>False</div></td></tr><tr><td><div>/universitary_advisor/default/index</div></td></tr><tr><td><div><table></table></div></td></tr></table></div></td></tr></table></div></td></tr><tr><td style="font-weight:bold;vertical-align:top;">meta</td><td style="vertical-align:top;">:</td><td><div><table><tr><td style="font-weight:bold;vertical-align:top;">author</td><td style="vertical-align:top;">:</td><td><div>Khouri, Lescano, Roldan &lt;mail@mail.com&gt;</div></td></tr><tr><td style="font-weight:bold;vertical-align:top;">description</td><td style="vertical-align:top;">:</td><td><div></div></td></tr><tr><td style="font-weight:bold;vertical-align:top;">keywords</td><td style="vertical-align:top;">:</td><td><div></div></td></tr></table></div></td></tr><tr><td style="font-weight:bold;vertical-align:top;">models_to_run</td><td style="vertical-align:top;">:</td><td><div><table><tr><td><div>^\\w+\\.py$</div></td></tr><tr><td><div>^horario/\\w+\\.py$</div></td></tr><tr><td><div>^horario/index/\\w+\\.py$</div></td></tr></table></div></td></tr><tr><td style="font-weight:bold;vertical-align:top;">postprocessing</td><td style="vertical-align:top;">:</td><td><div><table></table></div></td></tr><tr><td style="font-weight:bold;vertical-align:top;">session_client</td><td style="vertical-align:top;">:</td><td><div>127.0.0.1</div></td></tr><tr><td style="font-weight:bold;vertical-align:top;">session_cookie_compression_level</td><td style="vertical-align:top;">:</td><td><div>None</div></td></tr><tr><td style="font-weight:bold;vertical-align:top;">session_cookie_expires</td><td style="vertical-align:top;">:</td><td><div>None</div></td></tr><tr><td style="font-weight:bold;vertical-align:top;">session_cookie_key</td><td style="vertical-align:top;">:</td><td><div>None</div></td></tr><tr><td style="font-weight:bold;vertical-align:top;">session_data_name</td><td style="vertical-align:top;">:</td><td><div>session_data_universitary_advisor</div></td></tr><tr><td style="font-weight:bold;vertical-align:top;">session_file</td><td style="vertical-align:top;">:</td><td><div>&lt;open file &#x27;/home/martin/apps/web2py/applications/universitary_advisor/sessions/04c/1f0/127.0.0.1-f5190dc2-e083-43fb-90cf-4f58a181b5fe&#x27;, mode &#x27;rb+&#x27; at 0x7f104041cc00&gt;</div></td></tr><tr><td style="font-weight:bold;vertical-align:top;">session_filename</td><td style="vertical-align:top;">:</td><td><div>/home/martin/apps/web2py/applications/universitary_advisor/sessions/127.0.0.1-f5190dc2-e083-43fb-90cf-4f58a181b5fe</div></td></tr><tr><td style="font-weight:bold;vertical-align:top;">session_hash</td><td style="vertical-align:top;">:</td><td><div>f6f65fb17912dc7cad18f23c6ecc29ed</div></td></tr><tr><td style="font-weight:bold;vertical-align:top;">session_id</td><td style="vertical-align:top;">:</td><td><div>127.0.0.1-f5190dc2-e083-43fb-90cf-4f58a181b5fe</div></td></tr><tr><td style="font-weight:bold;vertical-align:top;">session_id_name</td><td style="vertical-align:top;">:</td><td><div>session_id_universitary_advisor</div></td></tr><tr><td style="font-weight:bold;vertical-align:top;">session_locked</td><td style="vertical-align:top;">:</td><td><div>True</div></td></tr><tr><td style="font-weight:bold;vertical-align:top;">session_masterapp</td><td style="vertical-align:top;">:</td><td><div>universitary_advisor</div></td></tr><tr><td style="font-weight:bold;vertical-align:top;">session_new</td><td style="vertical-align:top;">:</td><td><div>False</div></td></tr><tr><td style="font-weight:bold;vertical-align:top;">session_storage_type</td><td style="vertical-align:top;">:</td><td><div>file</div></td></tr><tr><td style="font-weight:bold;vertical-align:top;">status</td><td style="vertical-align:top;">:</td><td><div>200</div></td></tr><tr><td style="font-weight:bold;vertical-align:top;">subtitle</td><td style="vertical-align:top;">:</td><td><div>ISI 2008 UTN FRT</div></td></tr><tr><td style="font-weight:bold;vertical-align:top;">title</td><td style="vertical-align:top;">:</td><td><div>Universitary Advisor</div></td></tr><tr><td style="font-weight:bold;vertical-align:top;">view</td><td style="vertical-align:top;">:</td><td><div>horario/index.html</div></td></tr></table></div>'
tRp474
sS'locals'
p475
(dp476
S'field_type'
p477
S"'time'"
p478
sS'self'
p479
S'<pydal.adapters.sqlite.SQLiteAdapter object>'
p480
sS'value'
p481
S"'asda6542516'"
p482
sssS'traceback'
p483
S'Traceback (most recent call last):\n  File "/home/martin/apps/web2py/gluon/restricted.py", line 227, in restricted\n    exec ccode in environment\n  File "/home/martin/apps/web2py/applications/universitary_advisor/controllers/horario.py", line 7, in <module>\n  File "/home/martin/apps/web2py/gluon/globals.py", line 412, in <lambda>\n    self._caller = lambda f: f()\n  File "/home/martin/apps/web2py/applications/universitary_advisor/controllers/horario.py", line 4, in index\n    grid = SQLFORM.smartgrid(db.horario_clases)\n  File "/home/martin/apps/web2py/gluon/sqlhtml.py", line 3027, in smartgrid\n    user_signature=user_signature, **kwargs)\n  File "/home/martin/apps/web2py/gluon/sqlhtml.py", line 2698, in grid\n    nvalue = field.represent(value, row)\n  File "/home/martin/apps/web2py/gluon/packages/dal/pydal/helpers/methods.py", line 280, in __call__\n    _fieldformat(self.ref, x.id) for x in value) or \'\'\n  File "/home/martin/apps/web2py/gluon/packages/dal/pydal/helpers/methods.py", line 280, in <genexpr>\n    _fieldformat(self.ref, x.id) for x in value) or \'\'\n  File "/home/martin/apps/web2py/gluon/packages/dal/pydal/helpers/methods.py", line 246, in _fieldformat\n    row = r(id)\n  File "/home/martin/apps/web2py/gluon/packages/dal/pydal/objects.py", line 512, in __call__\n    orderby_on_limitby=False).first()\n  File "/home/martin/apps/web2py/gluon/packages/dal/pydal/objects.py", line 1986, in select\n    return adapter.select(self.query,fields,attributes)\n  File "/home/martin/apps/web2py/gluon/packages/dal/pydal/adapters/sqlite.py", line 122, in select\n    return super(SQLiteAdapter, self).select(query, fields, attributes)\n  File "/home/martin/apps/web2py/gluon/packages/dal/pydal/adapters/base.py", line 1258, in select\n    return self._select_aux(sql,fields,attributes)\n  File "/home/martin/apps/web2py/gluon/packages/dal/pydal/adapters/base.py", line 1239, in _select_aux\n    return processor(rows,fields,self._colnames,cacheable=cacheable)\n  File "/home/martin/apps/web2py/gluon/packages/dal/pydal/adapters/base.py", line 1716, in parse\n    fields_virtual, fields_lazy)\n  File "/home/martin/apps/web2py/gluon/packages/dal/pydal/adapters/base.py", line 1629, in _parse\n    value = self.parse_value(value,ft,blob_decode)\n  File "/home/martin/apps/web2py/gluon/packages/dal/pydal/adapters/base.py", line 1486, in parse_value\n    return self.parsemap[key](value,field_type)\n  File "/home/martin/apps/web2py/gluon/packages/dal/pydal/adapters/base.py", line 1512, in parse_time\n    time_items = list(map(int,str(value)[:8].strip().split(\':\')[:3]))\nValueError: invalid literal for int() with base 10: \'asda6542\'\n'
p484
s.